
Discarded input sections

 .text          0x0000000000000000        0x0 start.o
 .data          0x0000000000000000        0x0 start.o
 .bss           0x0000000000000000        0x0 start.o
 .data          0x0000000000000000        0x0 main.o
 .bss           0x0000000000000000        0x0 main.o
 .text          0x0000000000000000        0x0 ../../ps2emu/src/libc.o
 .data          0x0000000000000000        0x0 ../../ps2emu/src/libc.o
 .bss           0x0000000000000000        0x0 ../../ps2emu/src/libc.o
 .ps2emu_snprintf.text
                0x0000000000000000        0x0 ../../ps2emu/src/libc.o
 .ps2emu_strcpy.text
                0x0000000000000000        0x0 ../../ps2emu/src/libc.o
 .ps2emu_strlen.text
                0x0000000000000000        0x0 ../../ps2emu/src/libc.o
 .ps2emu_strcat.text
                0x0000000000000000        0x0 ../../ps2emu/src/libc.o
 .ps2emu_memcpy.text
                0x0000000000000000        0x0 ../../ps2emu/src/libc.o
 .snprintf.text
                0x0000000000000000        0x0 ../../ps2emu/src/libc.o
 .strcpy.text   0x0000000000000000        0x0 ../../ps2emu/src/libc.o
 .strcat.text   0x0000000000000000        0x0 ../../ps2emu/src/libc.o
 .memcpy.text   0x0000000000000000        0x0 ../../ps2emu/src/libc.o
 .memset.text   0x0000000000000000        0x0 ../../ps2emu/src/libc.o
 .text          0x0000000000000000        0x0 ../../ps2emu/src/libc_c.o
 .data          0x0000000000000000        0x0 ../../ps2emu/src/libc_c.o
 .bss           0x0000000000000000        0x0 ../../ps2emu/src/libc_c.o
 .toc           0x0000000000000000        0x0 ../../ps2emu/src/libc_c.o
 .text.strcmp   0x0000000000000000        0x0 ../../ps2emu/src/libc_c.o
 .text.memcmp   0x0000000000000000        0x0 ../../ps2emu/src/libc_c.o
 .text          0x0000000000000000        0x0 ../../ps2emu/src/memory.o
 .data          0x0000000000000000        0x0 ../../ps2emu/src/memory.o
 .bss           0x0000000000000000        0x0 ../../ps2emu/src/memory.o
 .text          0x0000000000000000        0x0 ../../ps2emu/src/io.o
 .data          0x0000000000000000        0x0 ../../ps2emu/src/io.o
 .bss           0x0000000000000000        0x0 ../../ps2emu/src/io.o
 .decrypt.text  0x0000000000000000        0x0 ../../ps2emu/src/io.o
 .text          0x0000000000000000        0x0 ../../ps2emu/src/patch.o
 .data          0x0000000000000000        0x0 ../../ps2emu/src/patch.o
 .bss           0x0000000000000000        0x0 ../../ps2emu/src/patch.o

Memory Configuration

Name             Origin             Length             Attributes
*default*        0x0000000000000000 0xffffffffffffffff

Linker script and memory map

LOAD start.o
LOAD main.o
LOAD ../../ps2emu/src/libc.o
LOAD ../../ps2emu/src/libc_c.o
LOAD ../../ps2emu/src/memory.o
LOAD ../../ps2emu/src/io.o
LOAD ../../ps2emu/src/patch.o
                0x0000000000003940                __base = 0x3940
                0x0000000000003940                . = __base
                0x0000000000003940                __self_start = .

.start          0x0000000000003940       0x10
 *(.start)
 .start         0x0000000000003940       0x10 start.o
                0x0000000000003940                _start
                0x0000000000003960                . = ALIGN (0x20)

.text           0x0000000000003960      0x810
 *(.text)
 .text          0x0000000000003960      0x190 main.o
 *(.text.*)
 .text._cdvd_read_patched
                0x0000000000003af0      0x170 main.o
 .text._read_iso_size
                0x0000000000003c60       0x7c main.o
 .text._fstat_iso_patched
                0x0000000000003cdc       0xc4 main.o
 .text._open_iso
                0x0000000000003da0      0x278 main.o
 .text.strncmp  0x0000000000004018       0x7c ../../ps2emu/src/libc_c.o
 .text.strchr   0x0000000000004094       0x38 ../../ps2emu/src/libc_c.o
 .text.strstr   0x00000000000040cc       0xa4 ../../ps2emu/src/libc_c.o

.sfpr           0x0000000000004170        0x0
 .sfpr          0x0000000000000000        0x0 linker stubs

.glink          0x0000000000004170        0x0
 .glink         0x0000000000000000        0x0 linker stubs

.ps2emu_memset.text
                0x0000000000004170       0x10
 .ps2emu_memset.text
                0x0000000000004170       0x10 ../../ps2emu/src/libc.o
                0x0000000000004170                ps2emu_memset

.strlen.text    0x0000000000004180       0x40
 .strlen.text   0x0000000000004180       0x40 ../../ps2emu/src/libc.o
                0x0000000000004180                strlen

.ufs_open.text  0x00000000000041c0       0x10
 .ufs_open.text
                0x00000000000041c0       0x10 ../../ps2emu/src/io.o
                0x00000000000041c0                ufs_open

.ufs_close.text
                0x00000000000041d0       0x10
 .ufs_close.text
                0x00000000000041d0       0x10 ../../ps2emu/src/io.o
                0x00000000000041d0                ufs_close

.ufs_read.text  0x00000000000041e0       0x10
 .ufs_read.text
                0x00000000000041e0       0x10 ../../ps2emu/src/io.o
                0x00000000000041e0                ufs_read

.ufs_write.text
                0x00000000000041f0       0x10
 .ufs_write.text
                0x00000000000041f0       0x10 ../../ps2emu/src/io.o
                0x00000000000041f0                ufs_write

.ufs_fstat.text
                0x0000000000004200       0x10
 .ufs_fstat.text
                0x0000000000004200       0x10 ../../ps2emu/src/io.o
                0x0000000000004200                ufs_fstat
                0x0000000000004220                . = ALIGN (0x20)

.rodata         0x0000000000004220       0x28
 *(.rodata)
 *(.rodata.*)
 .rodata.brlt   0x0000000000004220        0x0 linker stubs
 .rodata.str1.8
                0x0000000000004220       0x28 main.o
                0x0000000000004260                . = ALIGN (0x20)
                0x0000000000004260                __reloc_start = .

.data           0x0000000000004260        0x8
 *(.data)
 *(.data.*)
 .data.vars     0x0000000000004260        0x8 main.o
                0x0000000000004260                vars
 *(.sdata)
 *(.sdata.*)
                0x0000000000004280                . = ALIGN (0x20)

.bss            0x0000000000004280        0x4
 *(.sbss)
 *(.sbss.*)
 *(COMMON)
 *(.bss)
 *(.bss.*)
                0x0000000000004280        0x4 LONG 0x0
                0x00000000000042a0                . = ALIGN (0x20)
                0x00000000000042a0                __toc_start = .
                0x000000000000c2a0                __toc = (. + 0x8000)

.toc            0x00000000000042a0       0x50
 *(.toc)
 .toc           0x00000000000042a0       0x50 main.o
 *(.toc.*)
                0x00000000000042f0                __toc_end = .
                0x00000000000042f0                __opd_start = .

.opd            0x00000000000042f0       0xe8
 *(.opd)
 .opd           0x00000000000042f0       0xa0 main.o
                0x0000000000004378                _open_iso
                0x0000000000004300                fstat_iso_patched
                0x0000000000004360                _fstat_iso_patched
                0x00000000000042f0                open_iso
                0x0000000000004310                read_iso_size
                0x0000000000004320                cdvd_read_patched
                0x0000000000004348                _read_iso_size
                0x0000000000004330                _cdvd_read_patched
 .opd           0x0000000000004390       0x48 ../../ps2emu/src/libc_c.o
                0x00000000000043c0                strstr
                0x0000000000004390                strncmp
                0x00000000000043a8                strchr
 *(.opd.*)
                0x00000000000043d8                __opd_end = .
                0x00000000000043d8                __reloc_end = .
                0x00000000000043d8                __self_end = .

.rela.dyn       0x00000000000043d8        0x0
 .rela.text     0x0000000000000000        0x0 linker stubs
 .rela.toc      0x0000000000000000        0x0 linker stubs
OUTPUT(ps2netemu_stage2.elf elf64-powerpc)
LOAD linker stubs

.comment        0x0000000000000000       0x24
 .comment       0x0000000000000000       0x12 main.o
 .comment       0x0000000000000012       0x12 ../../ps2emu/src/libc_c.o
